; Function Attrs: null_pointer_is_valid sspstrong uwtable
define internal i32 @glusterfs_gfs4_0_op_unlink_call(ptr noundef %0, ptr readnone captures(none) %1, ptr noundef %2, ptr readnone captures(none) %3) #0 {
  %5 = load i32, ptr @hf_glusterfs_pargfid, align 4
  %6 = tail call ptr @proto_tree_add_item(ptr noundef %2, i32 noundef %5, ptr noundef %0, i32 noundef 0, i32 noundef 16, i32 noundef 0)
  %7 = load i32, ptr @hf_glusterfs_bname, align 4
  %8 = tail call i32 @dissect_rpc_string(ptr noundef %0, ptr noundef %2, i32 noundef %7, i32 noundef 16, ptr noundef null)
  %9 = tail call i32 @tvb_get_ntohl(ptr noundef %0, i32 noundef %8)
  %10 = load i32, ptr @hf_glusterfs_xflags, align 4
  %11 = tail call ptr (ptr, i32, ptr, i32, i32, i32, ptr, ...) @proto_tree_add_uint_format(ptr noundef %2, i32 noundef %10, ptr noundef %0, i32 noundef %8, i32 noundef 4, i32 noundef %9, ptr noundef nonnull @.str.574, i32 noundef %9)
  %12 = add i32 %8, 4
  %13 = load i32, ptr @hf_glusterfs_dict, align 4
  %14 = tail call fastcc i32 @gluster_rpc4_0_dissect_dict(ptr noundef %2, ptr noundef %0, i32 noundef %13, i32 noundef %12)
  ret i32 %14
}